target datalayout = "e-m:e-p270:32:32-p271:32:32-p272:64:64-i64:64-i128:128-f80:128-n8:16:32:64-S128"
target triple = "x86_64-pc-linux-gnu"

; Function Attrs: nounwind uwtable
define internal i32 @rtsp_conncheck(ptr noundef %0, ptr noundef %1, i32 noundef %2) #0 {
  %4 = alloca ptr, align 8
  %5 = alloca ptr, align 8
  %6 = alloca i32, align 4
  %7 = alloca i32, align 4
  %8 = alloca i8, align 1
  store ptr %0, ptr %4, align 8, !tbaa !3
  store ptr %1, ptr %5, align 8, !tbaa !8
  store i32 %2, ptr %6, align 4, !tbaa !84
  call void @llvm.lifetime.start.p0(i64 4, ptr %7) #5
  store i32 0, ptr %7, align 4, !tbaa !84
  %9 = load i32, ptr %6, align 4, !tbaa !84
  %10 = and i32 %9, 1
  %11 = icmp ne i32 %10, 0
  br i1 %11, label %12, label %20

12:                                               ; preds = %3
  call void @llvm.lifetime.start.p0(i64 1, ptr %8) #5
  %13 = load ptr, ptr %4, align 8, !tbaa !3
  %14 = load ptr, ptr %5, align 8, !tbaa !8
  %15 = call zeroext i1 @Curl_conn_is_alive(ptr noundef %13, ptr noundef %14, ptr noundef %8)
  br i1 %15, label %19, label %16

16:                                               ; preds = %12
  %17 = load i32, ptr %7, align 4, !tbaa !84
  %18 = or i32 %17, 1
  store i32 %18, ptr %7, align 4, !tbaa !84
  br label %19

19:                                               ; preds = %16, %12
  call void @llvm.lifetime.end.p0(i64 1, ptr %8) #5
  br label %20

20:                                               ; preds = %19, %3
  %21 = load i32, ptr %7, align 4, !tbaa !84
  call void @llvm.lifetime.end.p0(i64 4, ptr %7) #5
  ret i32 %21
}