; Function Attrs: nounwind uwtable
define internal range(i32 0, 2) i32 @rtsp_conncheck(ptr noundef %0, ptr noundef %1, i32 noundef %2) #0 {
  %4 = alloca i8, align 1
  %5 = and i32 %2, 1
  %.not = icmp eq i32 %5, 0
  br i1 %.not, label %8, label %6

6:                                                ; preds = %3
  call void @llvm.lifetime.start.p0(i64 1, ptr nonnull %4) #7
  %7 = call zeroext i1 @Curl_conn_is_alive(ptr noundef %0, ptr noundef %1, ptr noundef nonnull %4) #7
  %not. = xor i1 %7, true
  %spec.select = zext i1 %not. to i32
  call void @llvm.lifetime.end.p0(i64 1, ptr nonnull %4) #7
  br label %8

8:                                                ; preds = %6, %3
  %.0 = phi i32 [ %spec.select, %6 ], [ 0, %3 ]
  ret i32 %.0
}